; Function Attrs: mustprogress nofree norecurse nosync nounwind willreturn memory(argmem: readwrite) uwtable
define hidden void @_ZN6google8protobuf2io9Tokenizer21set_report_whitespaceEb(ptr noundef nonnull align 8 captures(none) dereferenceable(192) initializes((190, 191)) %0, i1 noundef zeroext %1) local_unnamed_addr #11 align 2 {
  %3 = zext i1 %1 to i8
  %4 = getelementptr inbounds nuw i8, ptr %0, i64 190
  store i8 %3, ptr %4, align 2, !tbaa !32
  %5 = getelementptr inbounds nuw i8, ptr %0, i64 191
  %6 = load i8, ptr %5, align 1, !tbaa !33, !range !49, !noundef !50
  %7 = icmp ne i8 %6, 0
  %8 = and i1 %1, %7
  %9 = zext i1 %8 to i8
  store i8 %9, ptr %5, align 1, !tbaa !33
  ret void
}